; ModuleID = '2/428.c'
source_filename = "2/428.c"
target datalayout = "e-m:e-p270:32:32-p271:32:32-p272:64:64-i64:64-f80:128-n8:16:32:64-S128"
target triple = "x86_64-pc-linux-gnu"

%struct.s = type { i32, [27 x i8] }

@.str = private unnamed_addr constant [3 x i8] c"%d\00", align 1
@.str.1 = private unnamed_addr constant [5 x i8] c"%d%s\00", align 1
@.str.2 = private unnamed_addr constant [7 x i8] c"%c\0A%d\0A\00", align 1
@.str.3 = private unnamed_addr constant [4 x i8] c"%d\0A\00", align 1

; Function Attrs: noinline nounwind uwtable
define dso_local i32 @main() #0 {
  %1 = alloca i32, align 4
  %2 = alloca i8, align 1
  %3 = alloca [128 x i32], align 16
  %4 = alloca i32, align 4
  %5 = alloca i32, align 4
  %6 = alloca i32, align 4
  %7 = alloca [1000 x %struct.s], align 16
  store i32 0, i32* %1, align 4
  store i8 65, i8* %2, align 1
  %8 = bitcast [128 x i32]* %3 to i8*
  call void @llvm.memset.p0i8.i64(i8* align 16 %8, i8 0, i64 512, i1 false)
  %9 = call i32 (i8*, ...) @__isoc99_scanf(i8* getelementptr inbounds ([3 x i8], [3 x i8]* @.str, i64 0, i64 0), i32* %6)
  store i32 0, i32* %4, align 4
  br label %10

10:                                               ; preds = %79, %0
  %11 = load i32, i32* %4, align 4
  %12 = load i32, i32* %6, align 4
  %13 = icmp slt i32 %11, %12
  br i1 %13, label %14, label %82

14:                                               ; preds = %10
  %15 = load i32, i32* %4, align 4
  %16 = sext i32 %15 to i64
  %17 = getelementptr inbounds [1000 x %struct.s], [1000 x %struct.s]* %7, i64 0, i64 %16
  %18 = getelementptr inbounds %struct.s, %struct.s* %17, i32 0, i32 0
  %19 = load i32, i32* %4, align 4
  %20 = sext i32 %19 to i64
  %21 = getelementptr inbounds [1000 x %struct.s], [1000 x %struct.s]* %7, i64 0, i64 %20
  %22 = getelementptr inbounds %struct.s, %struct.s* %21, i32 0, i32 1
  %23 = getelementptr inbounds [27 x i8], [27 x i8]* %22, i64 0, i64 0
  %24 = call i32 (i8*, ...) @__isoc99_scanf(i8* getelementptr inbounds ([5 x i8], [5 x i8]* @.str.1, i64 0, i64 0), i32* %18, i8* %23)
  store i32 0, i32* %5, align 4
  br label %25

25:                                               ; preds = %75, %14
  %26 = load i32, i32* %4, align 4
  %27 = sext i32 %26 to i64
  %28 = getelementptr inbounds [1000 x %struct.s], [1000 x %struct.s]* %7, i64 0, i64 %27
  %29 = getelementptr inbounds %struct.s, %struct.s* %28, i32 0, i32 1
  %30 = load i32, i32* %5, align 4
  %31 = sext i32 %30 to i64
  %32 = getelementptr inbounds [27 x i8], [27 x i8]* %29, i64 0, i64 %31
  %33 = load i8, i8* %32, align 1
  %34 = sext i8 %33 to i32
  %35 = icmp ne i32 %34, 0
  br i1 %35, label %36, label %78

36:                                               ; preds = %25
  %37 = load i32, i32* %4, align 4
  %38 = sext i32 %37 to i64
  %39 = getelementptr inbounds [1000 x %struct.s], [1000 x %struct.s]* %7, i64 0, i64 %38
  %40 = getelementptr inbounds %struct.s, %struct.s* %39, i32 0, i32 1
  %41 = load i32, i32* %5, align 4
  %42 = sext i32 %41 to i64
  %43 = getelementptr inbounds [27 x i8], [27 x i8]* %40, i64 0, i64 %42
  %44 = load i8, i8* %43, align 1
  %45 = sext i8 %44 to i64
  %46 = getelementptr inbounds [128 x i32], [128 x i32]* %3, i64 0, i64 %45
  %47 = load i32, i32* %46, align 4
  %48 = add nsw i32 %47, 1
  store i32 %48, i32* %46, align 4
  %49 = load i32, i32* %4, align 4
  %50 = sext i32 %49 to i64
  %51 = getelementptr inbounds [1000 x %struct.s], [1000 x %struct.s]* %7, i64 0, i64 %50
  %52 = getelementptr inbounds %struct.s, %struct.s* %51, i32 0, i32 1
  %53 = load i32, i32* %5, align 4
  %54 = sext i32 %53 to i64
  %55 = getelementptr inbounds [27 x i8], [27 x i8]* %52, i64 0, i64 %54
  %56 = load i8, i8* %55, align 1
  %57 = sext i8 %56 to i64
  %58 = getelementptr inbounds [128 x i32], [128 x i32]* %3, i64 0, i64 %57
  %59 = load i32, i32* %58, align 4
  %60 = load i8, i8* %2, align 1
  %61 = sext i8 %60 to i64
  %62 = getelementptr inbounds [128 x i32], [128 x i32]* %3, i64 0, i64 %61
  %63 = load i32, i32* %62, align 4
  %64 = icmp sgt i32 %59, %63
  br i1 %64, label %65, label %74

65:                                               ; preds = %36
  %66 = load i32, i32* %4, align 4
  %67 = sext i32 %66 to i64
  %68 = getelementptr inbounds [1000 x %struct.s], [1000 x %struct.s]* %7, i64 0, i64 %67
  %69 = getelementptr inbounds %struct.s, %struct.s* %68, i32 0, i32 1
  %70 = load i32, i32* %5, align 4
  %71 = sext i32 %70 to i64
  %72 = getelementptr inbounds [27 x i8], [27 x i8]* %69, i64 0, i64 %71
  %73 = load i8, i8* %72, align 1
  store i8 %73, i8* %2, align 1
  br label %74

74:                                               ; preds = %65, %36
  br label %75

75:                                               ; preds = %74
  %76 = load i32, i32* %5, align 4
  %77 = add nsw i32 %76, 1
  store i32 %77, i32* %5, align 4
  br label %25

78:                                               ; preds = %25
  br label %79

79:                                               ; preds = %78
  %80 = load i32, i32* %4, align 4
  %81 = add nsw i32 %80, 1
  store i32 %81, i32* %4, align 4
  br label %10

82:                                               ; preds = %10
  %83 = load i8, i8* %2, align 1
  %84 = sext i8 %83 to i32
  %85 = load i8, i8* %2, align 1
  %86 = sext i8 %85 to i64
  %87 = getelementptr inbounds [128 x i32], [128 x i32]* %3, i64 0, i64 %86
  %88 = load i32, i32* %87, align 4
  %89 = call i32 (i8*, ...) @printf(i8* getelementptr inbounds ([7 x i8], [7 x i8]* @.str.2, i64 0, i64 0), i32 %84, i32 %88)
  store i32 0, i32* %4, align 4
  br label %90

90:                                               ; preds = %112, %82
  %91 = load i32, i32* %4, align 4
  %92 = load i32, i32* %6, align 4
  %93 = icmp slt i32 %91, %92
  br i1 %93, label %94, label %115

94:                                               ; preds = %90
  %95 = load i32, i32* %4, align 4
  %96 = sext i32 %95 to i64
  %97 = getelementptr inbounds [1000 x %struct.s], [1000 x %struct.s]* %7, i64 0, i64 %96
  %98 = getelementptr inbounds %struct.s, %struct.s* %97, i32 0, i32 1
  %99 = getelementptr inbounds [27 x i8], [27 x i8]* %98, i64 0, i64 0
  %100 = load i8, i8* %2, align 1
  %101 = sext i8 %100 to i32
  %102 = call i8* @strchr(i8* %99, i32 %101) #4
  %103 = icmp ne i8* %102, null
  br i1 %103, label %104, label %111

104:                                              ; preds = %94
  %105 = load i32, i32* %4, align 4
  %106 = sext i32 %105 to i64
  %107 = getelementptr inbounds [1000 x %struct.s], [1000 x %struct.s]* %7, i64 0, i64 %106
  %108 = getelementptr inbounds %struct.s, %struct.s* %107, i32 0, i32 0
  %109 = load i32, i32* %108, align 16
  %110 = call i32 (i8*, ...) @printf(i8* getelementptr inbounds ([4 x i8], [4 x i8]* @.str.3, i64 0, i64 0), i32 %109)
  br label %111

111:                                              ; preds = %104, %94
  br label %112

112:                                              ; preds = %111
  %113 = load i32, i32* %4, align 4
  %114 = add nsw i32 %113, 1
  store i32 %114, i32* %4, align 4
  br label %90

115:                                              ; preds = %90
  ret i32 0
}

; Function Attrs: argmemonly nounwind willreturn
declare void @llvm.memset.p0i8.i64(i8* nocapture writeonly, i8, i64, i1 immarg) #1

declare dso_local i32 @__isoc99_scanf(i8*, ...) #2

declare dso_local i32 @printf(i8*, ...) #2

; Function Attrs: nounwind readonly
declare dso_local i8* @strchr(i8*, i32) #3


!llvm.module.flags = !{!0}
!llvm.ident = !{!1}

!0 = !{i32 1, !"wchar_size", i32 4}
!1 = !{!"clang version 10.0.0-4ubuntu1 "}
