; ModuleID = 'source-C-CXX/1/428.c'
source_filename = "source-C-CXX/1/428.c"
target datalayout = "e-m:e-p270:32:32-p271:32:32-p272:64:64-i64:64-f80:128-n8:16:32:64-S128"
target triple = "x86_64-pc-linux-gnu"

%struct.s = type { i32, [27 x i8] }

@.str = private unnamed_addr constant [3 x i8] c"%d\00", align 1
@.str.1 = private unnamed_addr constant [5 x i8] c"%d%s\00", align 1
@.str.2 = private unnamed_addr constant [7 x i8] c"%c\0A%d\0A\00", align 1
@.str.3 = private unnamed_addr constant [4 x i8] c"%d\0A\00", align 1

; Function Attrs: nofree nounwind sspstrong uwtable
define dso_local i32 @main() local_unnamed_addr #0 {
  %1 = alloca [128 x i32], align 16
  %2 = alloca i32, align 4
  %3 = alloca [1000 x %struct.s], align 16
  %4 = bitcast [128 x i32]* %1 to i8*
  call void @llvm.lifetime.start.p0i8(i64 512, i8* nonnull %4) #5
  call void @llvm.memset.p0i8.i64(i8* noundef nonnull align 16 dereferenceable(512) %4, i8 0, i64 512, i1 false)
  %5 = bitcast i32* %2 to i8*
  call void @llvm.lifetime.start.p0i8(i64 4, i8* nonnull %5) #5
  %6 = bitcast [1000 x %struct.s]* %3 to i8*
  call void @llvm.lifetime.start.p0i8(i64 32000, i8* nonnull %6) #5
  %7 = call i32 (i8*, ...) @__isoc99_scanf(i8* getelementptr inbounds ([3 x i8], [3 x i8]* @.str, i64 0, i64 0), i32* nonnull %2)
  %8 = load i32, i32* %2, align 4, !tbaa !5
  %9 = icmp sgt i32 %8, 0
  br i1 %9, label %10, label %41

10:                                               ; preds = %0, %35
  %11 = phi i64 [ %37, %35 ], [ 0, %0 ]
  %12 = phi i8 [ %36, %35 ], [ 65, %0 ]
  %13 = getelementptr inbounds [1000 x %struct.s], [1000 x %struct.s]* %3, i64 0, i64 %11, i32 0
  %14 = getelementptr inbounds [1000 x %struct.s], [1000 x %struct.s]* %3, i64 0, i64 %11, i32 1, i64 0
  %15 = call i32 (i8*, ...) @__isoc99_scanf(i8* getelementptr inbounds ([5 x i8], [5 x i8]* @.str.1, i64 0, i64 0), i32* nonnull %13, i8* nonnull %14)
  %16 = load i8, i8* %14, align 4, !tbaa !9
  %17 = icmp eq i8 %16, 0
  br i1 %17, label %35, label %18

18:                                               ; preds = %10, %18
  %19 = phi i64 [ %31, %18 ], [ 0, %10 ]
  %20 = phi i8 [ %33, %18 ], [ %16, %10 ]
  %21 = phi i8 [ %30, %18 ], [ %12, %10 ]
  %22 = sext i8 %20 to i64
  %23 = getelementptr inbounds [128 x i32], [128 x i32]* %1, i64 0, i64 %22
  %24 = load i32, i32* %23, align 4, !tbaa !5
  %25 = add nsw i32 %24, 1
  store i32 %25, i32* %23, align 4, !tbaa !5
  %26 = sext i8 %21 to i64
  %27 = getelementptr inbounds [128 x i32], [128 x i32]* %1, i64 0, i64 %26
  %28 = load i32, i32* %27, align 4, !tbaa !5
  %29 = icmp slt i32 %24, %28
  %30 = select i1 %29, i8 %21, i8 %20
  %31 = add nuw nsw i64 %19, 1
  %32 = getelementptr inbounds [1000 x %struct.s], [1000 x %struct.s]* %3, i64 0, i64 %11, i32 1, i64 %31
  %33 = load i8, i8* %32, align 1, !tbaa !9
  %34 = icmp eq i8 %33, 0
  br i1 %34, label %35, label %18, !llvm.loop !10

35:                                               ; preds = %18, %10
  %36 = phi i8 [ %12, %10 ], [ %30, %18 ]
  %37 = add nuw nsw i64 %11, 1
  %38 = load i32, i32* %2, align 4, !tbaa !5
  %39 = sext i32 %38 to i64
  %40 = icmp slt i64 %37, %39
  br i1 %40, label %10, label %41, !llvm.loop !12

41:                                               ; preds = %35, %0
  %42 = phi i8 [ 65, %0 ], [ %36, %35 ]
  %43 = sext i8 %42 to i32
  %44 = sext i8 %42 to i64
  %45 = getelementptr inbounds [128 x i32], [128 x i32]* %1, i64 0, i64 %44
  %46 = load i32, i32* %45, align 4, !tbaa !5
  %47 = call i32 (i8*, ...) @printf(i8* nonnull dereferenceable(1) getelementptr inbounds ([7 x i8], [7 x i8]* @.str.2, i64 0, i64 0), i32 %43, i32 %46)
  %48 = load i32, i32* %2, align 4, !tbaa !5
  %49 = icmp sgt i32 %48, 0
  br i1 %49, label %50, label %66

50:                                               ; preds = %41, %61
  %51 = phi i32 [ %62, %61 ], [ %48, %41 ]
  %52 = phi i64 [ %63, %61 ], [ 0, %41 ]
  %53 = getelementptr inbounds [1000 x %struct.s], [1000 x %struct.s]* %3, i64 0, i64 %52, i32 1, i64 0
  %54 = call i8* @strchr(i8* noundef nonnull %53, i32 %43) #6
  %55 = icmp eq i8* %54, null
  br i1 %55, label %61, label %56

56:                                               ; preds = %50
  %57 = getelementptr inbounds [1000 x %struct.s], [1000 x %struct.s]* %3, i64 0, i64 %52, i32 0
  %58 = load i32, i32* %57, align 16, !tbaa !13
  %59 = call i32 (i8*, ...) @printf(i8* nonnull dereferenceable(1) getelementptr inbounds ([4 x i8], [4 x i8]* @.str.3, i64 0, i64 0), i32 %58)
  %60 = load i32, i32* %2, align 4, !tbaa !5
  br label %61

61:                                               ; preds = %50, %56
  %62 = phi i32 [ %51, %50 ], [ %60, %56 ]
  %63 = add nuw nsw i64 %52, 1
  %64 = sext i32 %62 to i64
  %65 = icmp slt i64 %63, %64
  br i1 %65, label %50, label %66, !llvm.loop !15

66:                                               ; preds = %61, %41
  call void @llvm.lifetime.end.p0i8(i64 32000, i8* nonnull %6) #5
  call void @llvm.lifetime.end.p0i8(i64 4, i8* nonnull %5) #5
  call void @llvm.lifetime.end.p0i8(i64 512, i8* nonnull %4) #5
  ret i32 0
}

; Function Attrs: argmemonly mustprogress nofree nosync nounwind willreturn
declare void @llvm.lifetime.start.p0i8(i64 immarg, i8* nocapture) #1

; Function Attrs: argmemonly mustprogress nofree nounwind willreturn writeonly
declare void @llvm.memset.p0i8.i64(i8* nocapture writeonly, i8, i64, i1 immarg) #2

; Function Attrs: nofree nounwind
declare noundef i32 @__isoc99_scanf(i8* nocapture noundef readonly, ...) local_unnamed_addr #3

; Function Attrs: nofree nounwind
declare noundef i32 @printf(i8* nocapture noundef readonly, ...) local_unnamed_addr #3

; Function Attrs: argmemonly mustprogress nofree nounwind readonly willreturn
declare i8* @strchr(i8*, i32) local_unnamed_addr #4

; Function Attrs: argmemonly mustprogress nofree nosync nounwind willreturn
declare void @llvm.lifetime.end.p0i8(i64 immarg, i8* nocapture) #1


!llvm.module.flags = !{!0, !1, !2, !3}
!llvm.ident = !{!4}

!0 = !{i32 1, !"wchar_size", i32 4}
!1 = !{i32 7, !"PIC Level", i32 2}
!2 = !{i32 7, !"PIE Level", i32 2}
!3 = !{i32 7, !"uwtable", i32 1}
!4 = !{!"clang version 13.0.0"}
!5 = !{!6, !6, i64 0}
!6 = !{!"int", !7, i64 0}
!7 = !{!"omnipotent char", !8, i64 0}
!8 = !{!"Simple C/C++ TBAA"}
!9 = !{!7, !7, i64 0}
!10 = distinct !{!10, !11}
!11 = !{!"llvm.loop.mustprogress"}
!12 = distinct !{!12, !11}
!13 = !{!14, !6, i64 0}
!14 = !{!"s", !6, i64 0, !7, i64 4}
!15 = distinct !{!15, !11}
